(lp0
(dp1
S'KiInitialPCR'
p2
L5372125184L
sS'PsActiveProcessHead'
p3
L5371767712L
sS'KdCopyDataBlock'
p4
L5370542480L
sS'KdDebuggerDataBlock'
p5
L5371680272L
sS'MmAccessFault'
p6
L5368971744L
sS'KdpDataBlockEncoded'
p7
L5372001794L
sS'NtUnmapViewOfSection'
p8
L5372952924L
sS'_KPCR_KdVersionBlock'
p9
I264
sS'_KPRCB_DpcStack'
p10
I11728
sS'ObpCreateHandle'
p11
L5372877024L
sS'_EPROCESS_PeakVirtualSize'
p12
I816
sS'KeBugCheck2'
p13
L5370556860L
sS'_EPROCESS_ThreadListHead'
p14
I1152
sS'MiUnmapViewOfSection'
p15
L5372953120L
sS'NtFreeVirtualMemory'
p16
L5372997744L
sS'_EPROCESS_UniqueProcessId'
p17
I744
sS'_KTHREAD_Process'
p18
I544
sS'_KTHREAD_StackBase'
p19
I56
sS'NtMapViewOfSection'
p20
L5372976752L
sS'PsLoadedModuleList'
p21
L5371887344L
sS'_KPRCB_CurrentThread'
p22
I8
sS'IopDeleteDriver'
p23
L5374092924L
sS'checksum'
p24
I7677744
sS'PerfLogImageUnload'
p25
L5373005820L
sS'_EPROCESS_ActiveProcessLinks'
p26
I752
sS'_EPROCESS_VadRoot'
p27
I1528
sS'_KPCR_Prcb'
p28
I384
sS'_KPRCB_ProcessorState'
p29
I64
sS'_ETHREAD_ThreadListEntry'
p30
I1680
sS'version'
p31
(lp32
S'10'
p33
aS'0'
p34
aS'9926'
p35
ag34
asS'NtAllocateVirtualMemory'
p36
L5372984720L
sS'_EPROCESS_VirtualSize'
p37
I824
sS'_ETHREAD_Cid'
p38
I1576
sS'NtProtectVirtualMemory'
p39
L5372982224L
sS'bits'
p40
I64
sS'_KTHREAD_StackLimit'
p41
I48
sS'_EPROCESS_CommitChargePeak'
p42
I1264
sS'_EPROCESS_CommitCharge'
p43
I1256
sa(dp44
g2
L5370748160L
sg3
L5370963344L
sg4
L5369789680L
sg5
L5370740944L
sg6
L5369235488L
sg7
L5370904866L
sg8
L5372444868L
sg9
I264
sg10
I8640
sg11
L5372313472L
sg12
I464
sg13
L5370181472L
sg14
I776
sg15
L5372443504L
sg16
L5369104368L
sg17
I384
sg18
I528
sg19
I632
sg20
L5372451312L
sg21
L5371086992L
sg22
I8
sg23
L5373898448L
sg24
I5603149
sg25
L5369048820L
sg26
I392
sg27
I1096
sg28
I384
sg29
I64
sg30
I1064
sg31
(lp45
S'6'
p46
aS'1'
p47
aS'7601'
p48
aS'22616'
p49
asg36
L5372305728L
sg37
I472
sg38
I952
sg39
L5372446304L
sg40
I64
sg41
I48
sg42
I896
sg43
I440
sa(dp50
g2
I0
sg3
I4731224
sg4
I0
sg5
I4647648
sg6
I4477800
sg7
I0
sg8
I5051030
sg9
I52
sg10
I2152
sS'_KPCR_PrcbData'
p51
I288
sg11
I5094604
sg12
I172
sg13
I4330006
sg14
I400
sg15
I5050576
sg16
I5051392
sg17
I132
sg18
I544
sg19
I360
sg20
I5047424
sg21
I4706240
sg22
I4
sg23
I4856394
sg24
I2117246
sg25
I0
sg26
I136
sg27
I284
sg28
I32
sg29
I28
sg30
I556
sg31
(lp52
S'5'
p53
ag47
aS'2600'
p54
aS'5512'
p55
asg36
I5008830
sg37
I176
sg38
I492
sg39
I5073416
sg40
I32
sg41
I28
sg42
I492
sg43
I168
sa(dp56
g2
L5371813888L
sg3
L5371423760L
sg4
L5370224288L
sg5
L5371280016L
sg6
L5369452064L
sg7
L5371332811L
sg8
L5372912552L
sg9
I264
sg10
I11712
sg11
L5373201648L
sg12
I800
sg13
L5370236836L
sg14
I1136
sg15
L5373355920L
sg16
L5369674000L
sg17
I736
sg18
I544
sg19
I56
sg20
L5373351312L
sg21
L5371636320L
sg22
I8
sg23
L5373484352L
sg24
I6989512
sg25
L5373766224L
sg26
I744
sg27
I1424
sg28
I384
sg29
I64
sg30
I1024
sg31
(lp57
g46
aS'2'
p58
aS'9200'
p59
aS'16384'
p60
asg36
L5373382768L
sg37
I808
sg38
I920
sg39
L5373369984L
sg40
I64
sg41
I48
sg42
I1248
sg43
I1240
sa(dp61
g2
I5381120
sg3
I5473880
sg4
I5045690
sg5
I5377000
sg6
I4582279
sg7
I5432726
sg8
I6654538
sg9
I52
sg10
I6408
sg11
I6362197
sg12
I220
sg13
I5053239
sg14
I392
sg15
I6512252
sg16
I4705516
sg17
I180
sg18
I336
sg19
I400
sg20
I6513123
sg21
I5502320
sg22
I4
sg23
I5710331
sg24
I3944328
sg25
I4742455
sg26
I184
sg27
I632
sg28
I32
sg29
I24
sg30
I616
sg31
(lp62
g46
ag47
aS'7600'
p63
aS'16385'
p64
asg36
I6330086
sg37
I224
sg38
I556
sg39
I6540025
sg40
I32
sg41
I44
sg42
I484
sg43
I208
sa(dp65
g2
L5370719488L
sg3
L5370936112L
sg4
L5369769920L
sg5
L5370712176L
sg6
L5369281504L
sg7
L5370877002L
sg8
L5372412412L
sg9
I264
sg10
I8640
sg11
L5372277360L
sg12
I464
sg13
L5370183072L
sg14
I776
sg15
L5372411040L
sg16
L5369443968L
sg17
I384
sg18
I528
sg19
I632
sg20
L5372414976L
sg21
L5371059792L
sg22
I8
sg23
L5373861680L
sg24
I5551239
sg25
L5369040816L
sg26
I392
sg27
I1096
sg28
I384
sg29
I64
sg30
I1056
sg31
(lp66
g46
ag47
aS'7600'
p67
aS'16385'
p68
asg36
L5372317008L
sg37
I472
sg38
I944
sg39
L5372426628L
sg40
I64
sg41
I48
sg42
I896
sg43
I440
sa(dp69
g2
L5370752256L
sg3
L5370968976L
sg4
L5369793536L
sg5
L5370744992L
sg6
L5369288224L
sg7
L5370909874L
sg8
L5372476116L
sg9
I264
sg10
I8640
sg11
L5372349760L
sg12
I464
sg13
L5370184800L
sg14
I776
sg15
L5372474752L
sg16
L5369156816L
sg17
I384
sg18
I528
sg19
I632
sg20
L5372484064L
sg21
L5371092624L
sg22
I8
sg23
L5373913264L
sg24
I5623308
sg25
L5369101584L
sg26
I392
sg27
I1096
sg28
I384
sg29
I64
sg30
I1056
sg31
(lp70
g46
ag47
aS'7601'
p71
aS'17514'
p72
asg36
L5372345488L
sg37
I472
sg38
I944
sg39
L5372480300L
sg40
I64
sg41
I48
sg42
I896
sg43
I440
sa(dp73
g2
I5413888
sg3
I5508760
sg4
I5092446
sg5
I5409768
sg6
I4741085
sg7
I5467606
sg8
I6798556
sg9
I52
sg10
I6408
sg11
I6432397
sg12
I220
sg13
I5100243
sg14
I392
sg15
I6791773
sg16
I4929569
sg17
I180
sg18
I336
sg19
I400
sg20
I6811351
sg21
I5539856
sg22
I4
sg23
I7058655
sg24
I3970307
sg25
I4961217
sg26
I184
sg27
I632
sg28
I32
sg29
I24
sg30
I616
sg31
(lp74
g46
ag47
aS'7600'
p75
aS'16385'
p76
asg36
I6602255
sg37
I224
sg38
I556
sg39
I6814785
sg40
I32
sg41
I44
sg42
I484
sg43
I208
sa(dp77
g2
I5385216
sg3
I5478104
sg4
I5049454
sg5
I5381160
sg6
I4582552
sg7
I5436950
sg8
I6660804
sg9
I52
sg10
I6408
sg11
I6368240
sg12
I220
sg13
I5057003
sg14
I392
sg15
I6518248
sg16
I4707089
sg17
I180
sg18
I336
sg19
I400
sg20
I6519118
sg21
I5506480
sg22
I4
sg23
I5714428
sg24
I3933653
sg25
I4744558
sg26
I184
sg27
I632
sg28
I32
sg29
I24
sg30
I616
sg31
(lp78
g46
ag47
aS'7601'
p79
aS'17514'
p80
asg36
I6336067
sg37
I224
sg38
I556
sg39
I6546021
sg40
I32
sg41
I44
sg42
I484
sg43
I208
sa(dp81
g2
I0
sg3
I4760408
sg4
I0
sg5
I4677088
sg6
I4267632
sg7
I0
sg8
I4835046
sg9
I52
sg10
I2152
sg51
I288
sg11
I4775638
sg12
I172
sg13
I4570282
sg14
I400
sg15
I4834733
sg16
I4794605
sg17
I132
sg18
I544
sg19
I360
sg20
I4836193
sg21
I4735424
sg22
I4
sg23
I5157695
sg24
I2246594
sg25
I0
sg26
I136
sg27
I284
sg28
I32
sg29
I28
sg30
I556
sg31
(lp82
g53
ag47
aS'2600'
p83
aS'5512'
p84
asg36
I4792259
sg37
I176
sg38
I492
sg39
I4828337
sg40
I32
sg41
I28
sg42
I492
sg43
I168
sa(dp85
g2
I5422080
sg3
I5517080
sg4
I5020338
sg5
I5418024
sg6
I4776725
sg7
I5475926
sg8
I6710842
sg9
I52
sg10
I6408
sg11
I6441344
sg12
I220
sg13
I5108967
sg14
I392
sg15
I6586414
sg16
I4957403
sg17
I180
sg18
I336
sg19
I400
sg20
I6587284
sg21
I5548112
sg22
I4
sg23
I7057031
sg24
I3967148
sg25
I4957018
sg26
I184
sg27
I632
sg28
I32
sg29
I24
sg30
I616
sg31
(lp86
g46
ag47
aS'7601'
p87
aS'17514'
p88
asg36
I6470242
sg37
I224
sg38
I556
sg39
I6571011
sg40
I32
sg41
I44
sg42
I484
sg43
I208
sa(dp89
g2
L5371748352L
sg3
L5371527328L
sg4
L5370648280L
sg5
L5371427360L
sg6
L5369131552L
sg7
L5371474369L
sg8
L5372672812L
sg9
I264
sg10
I11728
sg11
L5372857696L
sg12
I800
sg13
L5370661548L
sg14
I1136
sg15
L5372672976L
sg16
L5369157312L
sg17
I736
sg18
I544
sg19
I56
sg20
L5373432296L
sg21
L5371634384L
sg22
I8
sg23
L5373695656L
sg24
I7469778
sg25
L5372707736L
sg26
I744
sg27
I1496
sg28
I384
sg29
I64
sg30
I1672
sg31
(lp90
g46
aS'3'
p91
aS'9600'
p92
aS'17031'
p93
asg36
L5372891584L
sg37
I808
sg38
I1568
sg39
L5373213636L
sg40
I64
sg41
I48
sg42
I1736
sg43
I1232
sa.